	.file	"cast.cc"
	.text
.Ltext0:
	.section	.rodata
	.type	_ZStL19piecewise_construct, @object
	.size	_ZStL19piecewise_construct, 1
_ZStL19piecewise_construct:
	.zero	1
	.local	_ZStL8__ioinit
	.comm	_ZStL8__ioinit,1,1
.LC0:
	.string	"ctor: A\n"
	.section	.text._ZN1AC2Ei,"axG",@progbits,_ZN1AC5Ei,comdat
	.align 2
	.weak	_ZN1AC2Ei
	.type	_ZN1AC2Ei, @function
_ZN1AC2Ei:
.LFB1577:
	.file 1 "cast.cc"
	.loc 1 6 5
	.cfi_startproc
	pushq	%rbp
	.cfi_def_cfa_offset 16
	.cfi_offset 6, -16
	movq	%rsp, %rbp
	.cfi_def_cfa_register 6
	subq	$16, %rsp
	movq	%rdi, -8(%rbp)
	movl	%esi, -12(%rbp)
.LBB2:
	.loc 1 6 18
	leaq	16+_ZTV1A(%rip), %rdx
	movq	-8(%rbp), %rax
	movq	%rdx, (%rax)
	movq	-8(%rbp), %rax
	movl	-12(%rbp), %edx
	movl	%edx, 8(%rax)
	.loc 1 6 30
	leaq	.LC0(%rip), %rsi
	leaq	_ZSt4cout(%rip), %rdi
	call	_ZStlsISt11char_traitsIcEERSt13basic_ostreamIcT_ES5_PKc@PLT
.LBE2:
	.loc 1 6 43
	nop
	leave
	.cfi_def_cfa 7, 8
	ret
	.cfi_endproc
.LFE1577:
	.size	_ZN1AC2Ei, .-_ZN1AC2Ei
	.weak	_ZN1AC1Ei
	.set	_ZN1AC1Ei,_ZN1AC2Ei
	.section	.rodata
.LC1:
	.string	"this is A\n"
	.section	.text._ZN1A4dispEv,"axG",@progbits,_ZN1A4dispEv,comdat
	.align 2
	.weak	_ZN1A4dispEv
	.type	_ZN1A4dispEv, @function
_ZN1A4dispEv:
.LFB1579:
	.loc 1 7 18
	.cfi_startproc
	pushq	%rbp
	.cfi_def_cfa_offset 16
	.cfi_offset 6, -16
	movq	%rsp, %rbp
	.cfi_def_cfa_register 6
	subq	$16, %rsp
	movq	%rdi, -8(%rbp)
	.loc 1 7 35
	leaq	.LC1(%rip), %rsi
	leaq	_ZSt4cout(%rip), %rdi
	call	_ZStlsISt11char_traitsIcEERSt13basic_ostreamIcT_ES5_PKc@PLT
	.loc 1 7 50
	nop
	leave
	.cfi_def_cfa 7, 8
	ret
	.cfi_endproc
.LFE1579:
	.size	_ZN1A4dispEv, .-_ZN1A4dispEv
	.section	.rodata
.LC2:
	.string	"dtor: destructor!\n"
	.section	.text._ZN1AD2Ev,"axG",@progbits,_ZN1AD5Ev,comdat
	.align 2
	.weak	_ZN1AD2Ev
	.type	_ZN1AD2Ev, @function
_ZN1AD2Ev:
.LFB1581:
	.loc 1 9 5
	.cfi_startproc
	.cfi_personality 0x9b,DW.ref.__gxx_personality_v0
	.cfi_lsda 0x1b,.LLSDA1581
	pushq	%rbp
	.cfi_def_cfa_offset 16
	.cfi_offset 6, -16
	movq	%rsp, %rbp
	.cfi_def_cfa_register 6
	subq	$16, %rsp
	movq	%rdi, -8(%rbp)
.LBB3:
	.loc 1 9 10
	leaq	16+_ZTV1A(%rip), %rdx
	movq	-8(%rbp), %rax
	movq	%rdx, (%rax)
	.loc 1 9 19
	leaq	.LC2(%rip), %rsi
	leaq	_ZSt4cout(%rip), %rdi
	call	_ZStlsISt11char_traitsIcEERSt13basic_ostreamIcT_ES5_PKc@PLT
.LBE3:
	.loc 1 9 42
	nop
	leave
	.cfi_def_cfa 7, 8
	ret
	.cfi_endproc
.LFE1581:
	.globl	__gxx_personality_v0
	.section	.gcc_except_table._ZN1AD2Ev,"aG",@progbits,_ZN1AD5Ev,comdat
.LLSDA1581:
	.byte	0xff
	.byte	0xff
	.byte	0x1
	.uleb128 .LLSDACSE1581-.LLSDACSB1581
.LLSDACSB1581:
.LLSDACSE1581:
	.section	.text._ZN1AD2Ev,"axG",@progbits,_ZN1AD5Ev,comdat
	.size	_ZN1AD2Ev, .-_ZN1AD2Ev
	.weak	_ZN1AD1Ev
	.set	_ZN1AD1Ev,_ZN1AD2Ev
	.section	.rodata
.LC3:
	.string	"ctor: B\n"
	.section	.text._ZN1BC2Eii,"axG",@progbits,_ZN1BC5Eii,comdat
	.align 2
	.weak	_ZN1BC2Eii
	.type	_ZN1BC2Eii, @function
_ZN1BC2Eii:
.LFB1584:
	.loc 1 13 5
	.cfi_startproc
	.cfi_personality 0x9b,DW.ref.__gxx_personality_v0
	.cfi_lsda 0x1b,.LLSDA1584
	pushq	%rbp
	.cfi_def_cfa_offset 16
	.cfi_offset 6, -16
	movq	%rsp, %rbp
	.cfi_def_cfa_register 6
	pushq	%rbx
	subq	$24, %rsp
	.cfi_offset 3, -24
	movq	%rdi, -24(%rbp)
	movl	%esi, -28(%rbp)
	movl	%edx, -32(%rbp)
.LBB4:
	.loc 1 13 35
	movq	-24(%rbp), %rax
	movl	-28(%rbp), %edx
	movl	%edx, %esi
	movq	%rax, %rdi
.LEHB0:
	call	_ZN1AC2Ei
.LEHE0:
	leaq	16+_ZTV1B(%rip), %rdx
	movq	-24(%rbp), %rax
	movq	%rdx, (%rax)
	movq	-24(%rbp), %rax
	movl	-32(%rbp), %edx
	movl	%edx, 12(%rax)
	.loc 1 13 47
	leaq	.LC3(%rip), %rsi
	leaq	_ZSt4cout(%rip), %rdi
.LEHB1:
	call	_ZStlsISt11char_traitsIcEERSt13basic_ostreamIcT_ES5_PKc@PLT
.LEHE1:
.LBE4:
	.loc 1 13 60
	jmp	.L7
.L6:
.LBB5:
	.loc 1 13 35
	movq	%rax, %rbx
	movq	-24(%rbp), %rax
	movq	%rax, %rdi
	call	_ZN1AD2Ev
	movq	%rbx, %rax
	movq	%rax, %rdi
.LEHB2:
	call	_Unwind_Resume@PLT
.LEHE2:
.L7:
.LBE5:
	.loc 1 13 60
	movq	-8(%rbp), %rbx
	leave
	.cfi_def_cfa 7, 8
	ret
	.cfi_endproc
.LFE1584:
	.section	.gcc_except_table._ZN1BC2Eii,"aG",@progbits,_ZN1BC5Eii,comdat
.LLSDA1584:
	.byte	0xff
	.byte	0xff
	.byte	0x1
	.uleb128 .LLSDACSE1584-.LLSDACSB1584
.LLSDACSB1584:
	.uleb128 .LEHB0-.LFB1584
	.uleb128 .LEHE0-.LEHB0
	.uleb128 0
	.uleb128 0
	.uleb128 .LEHB1-.LFB1584
	.uleb128 .LEHE1-.LEHB1
	.uleb128 .L6-.LFB1584
	.uleb128 0
	.uleb128 .LEHB2-.LFB1584
	.uleb128 .LEHE2-.LEHB2
	.uleb128 0
	.uleb128 0
.LLSDACSE1584:
	.section	.text._ZN1BC2Eii,"axG",@progbits,_ZN1BC5Eii,comdat
	.size	_ZN1BC2Eii, .-_ZN1BC2Eii
	.weak	_ZN1BC1Eii
	.set	_ZN1BC1Eii,_ZN1BC2Eii
	.section	.rodata
.LC4:
	.string	"this is B\n"
	.section	.text._ZN1B4dispEv,"axG",@progbits,_ZN1B4dispEv,comdat
	.align 2
	.weak	_ZN1B4dispEv
	.type	_ZN1B4dispEv, @function
_ZN1B4dispEv:
.LFB1586:
	.loc 1 14 18
	.cfi_startproc
	pushq	%rbp
	.cfi_def_cfa_offset 16
	.cfi_offset 6, -16
	movq	%rsp, %rbp
	.cfi_def_cfa_register 6
	subq	$16, %rsp
	movq	%rdi, -8(%rbp)
	.loc 1 14 35
	leaq	.LC4(%rip), %rsi
	leaq	_ZSt4cout(%rip), %rdi
	call	_ZStlsISt11char_traitsIcEERSt13basic_ostreamIcT_ES5_PKc@PLT
	.loc 1 14 50
	nop
	leave
	.cfi_def_cfa 7, 8
	ret
	.cfi_endproc
.LFE1586:
	.size	_ZN1B4dispEv, .-_ZN1B4dispEv
	.text
	.globl	_Z4echoR1A
	.type	_Z4echoR1A, @function
_Z4echoR1A:
.LFB1587:
	.loc 1 19 1
	.cfi_startproc
	pushq	%rbp
	.cfi_def_cfa_offset 16
	.cfi_offset 6, -16
	movq	%rsp, %rbp
	.cfi_def_cfa_register 6
	subq	$16, %rsp
	movq	%rdi, -8(%rbp)
	.loc 1 20 12
	movq	-8(%rbp), %rax
	movq	(%rax), %rax
	movq	(%rax), %rdx
	.loc 1 20 11
	movq	-8(%rbp), %rax
	movq	%rax, %rdi
	call	*%rdx
.LVL0:
	.loc 1 21 1
	nop
	leave
	.cfi_def_cfa 7, 8
	ret
	.cfi_endproc
.LFE1587:
	.size	_Z4echoR1A, .-_Z4echoR1A
	.section	.text._ZN1BD2Ev,"axG",@progbits,_ZN1BD5Ev,comdat
	.align 2
	.weak	_ZN1BD2Ev
	.type	_ZN1BD2Ev, @function
_ZN1BD2Ev:
.LFB1590:
	.loc 1 12 8
	.cfi_startproc
	pushq	%rbp
	.cfi_def_cfa_offset 16
	.cfi_offset 6, -16
	movq	%rsp, %rbp
	.cfi_def_cfa_register 6
	subq	$16, %rsp
	movq	%rdi, -8(%rbp)
.LBB6:
	.loc 1 12 8
	leaq	16+_ZTV1B(%rip), %rdx
	movq	-8(%rbp), %rax
	movq	%rdx, (%rax)
	movq	-8(%rbp), %rax
	movq	%rax, %rdi
	call	_ZN1AD2Ev
.LBE6:
	nop
	leave
	.cfi_def_cfa 7, 8
	ret
	.cfi_endproc
.LFE1590:
	.size	_ZN1BD2Ev, .-_ZN1BD2Ev
	.weak	_ZN1BD1Ev
	.set	_ZN1BD1Ev,_ZN1BD2Ev
	.text
	.globl	main
	.type	main, @function
main:
.LFB1588:
	.loc 1 24 1
	.cfi_startproc
	.cfi_personality 0x9b,DW.ref.__gxx_personality_v0
	.cfi_lsda 0x1b,.LLSDA1588
	pushq	%rbp
	.cfi_def_cfa_offset 16
	.cfi_offset 6, -16
	movq	%rsp, %rbp
	.cfi_def_cfa_register 6
	pushq	%rbx
	subq	$56, %rsp
	.cfi_offset 3, -24
	.loc 1 24 1
	movq	%fs:40, %rax
	movq	%rax, -24(%rbp)
	xorl	%eax, %eax
	.loc 1 25 9
	movl	$10, -52(%rbp)
	.loc 1 28 12
	leaq	-48(%rbp), %rax
	movl	$0, %edx
	movl	$20, %esi
	movq	%rax, %rdi
.LEHB3:
	call	_ZN1BC1Eii
.LEHE3:
	.loc 1 30 9
	leaq	-48(%rbp), %rax
	movq	%rax, %rdi
.LEHB4:
	call	_Z4echoR1A
.LEHE4:
	.loc 1 40 12
	movl	$0, %ebx
	.loc 1 28 12
	leaq	-48(%rbp), %rax
	movq	%rax, %rdi
	call	_ZN1BD1Ev
	.loc 1 41 1
	movl	%ebx, %eax
	movq	-24(%rbp), %rcx
	subq	%fs:40, %rcx
	je	.L14
	jmp	.L16
.L15:
	.loc 1 28 12
	movq	%rax, %rbx
	leaq	-48(%rbp), %rax
	movq	%rax, %rdi
	call	_ZN1BD1Ev
	movq	%rbx, %rax
	movq	%rax, %rdi
.LEHB5:
	call	_Unwind_Resume@PLT
.LEHE5:
.L16:
	.loc 1 41 1
	call	__stack_chk_fail@PLT
.L14:
	movq	-8(%rbp), %rbx
	leave
	.cfi_def_cfa 7, 8
	ret
	.cfi_endproc
.LFE1588:
	.section	.gcc_except_table,"a",@progbits
.LLSDA1588:
	.byte	0xff
	.byte	0xff
	.byte	0x1
	.uleb128 .LLSDACSE1588-.LLSDACSB1588
.LLSDACSB1588:
	.uleb128 .LEHB3-.LFB1588
	.uleb128 .LEHE3-.LEHB3
	.uleb128 0
	.uleb128 0
	.uleb128 .LEHB4-.LFB1588
	.uleb128 .LEHE4-.LEHB4
	.uleb128 .L15-.LFB1588
	.uleb128 0
	.uleb128 .LEHB5-.LFB1588
	.uleb128 .LEHE5-.LEHB5
	.uleb128 0
	.uleb128 0
.LLSDACSE1588:
	.text
	.size	main, .-main
	.weak	_ZTV1B
	.section	.data.rel.ro.local._ZTV1B,"awG",@progbits,_ZTV1B,comdat
	.align 8
	.type	_ZTV1B, @object
	.size	_ZTV1B, 24
_ZTV1B:
	.quad	0
	.quad	_ZTI1B
	.quad	_ZN1B4dispEv
	.weak	_ZTV1A
	.section	.data.rel.ro.local._ZTV1A,"awG",@progbits,_ZTV1A,comdat
	.align 8
	.type	_ZTV1A, @object
	.size	_ZTV1A, 24
_ZTV1A:
	.quad	0
	.quad	_ZTI1A
	.quad	_ZN1A4dispEv
	.weak	_ZTI1B
	.section	.data.rel.ro._ZTI1B,"awG",@progbits,_ZTI1B,comdat
	.align 8
	.type	_ZTI1B, @object
	.size	_ZTI1B, 24
_ZTI1B:
	.quad	_ZTVN10__cxxabiv120__si_class_type_infoE+16
	.quad	_ZTS1B
	.quad	_ZTI1A
	.weak	_ZTS1B
	.section	.rodata._ZTS1B,"aG",@progbits,_ZTS1B,comdat
	.type	_ZTS1B, @object
	.size	_ZTS1B, 3
_ZTS1B:
	.string	"1B"
	.weak	_ZTI1A
	.section	.data.rel.ro._ZTI1A,"awG",@progbits,_ZTI1A,comdat
	.align 8
	.type	_ZTI1A, @object
	.size	_ZTI1A, 16
_ZTI1A:
	.quad	_ZTVN10__cxxabiv117__class_type_infoE+16
	.quad	_ZTS1A
	.weak	_ZTS1A
	.section	.rodata._ZTS1A,"aG",@progbits,_ZTS1A,comdat
	.type	_ZTS1A, @object
	.size	_ZTS1A, 3
_ZTS1A:
	.string	"1A"
	.text
	.type	_Z41__static_initialization_and_destruction_0ii, @function
_Z41__static_initialization_and_destruction_0ii:
.LFB2087:
	.loc 1 41 1
	.cfi_startproc
	pushq	%rbp
	.cfi_def_cfa_offset 16
	.cfi_offset 6, -16
	movq	%rsp, %rbp
	.cfi_def_cfa_register 6
	subq	$16, %rsp
	movl	%edi, -4(%rbp)
	movl	%esi, -8(%rbp)
	.loc 1 41 1
	cmpl	$1, -4(%rbp)
	jne	.L19
	.loc 1 41 1 is_stmt 0 discriminator 1
	cmpl	$65535, -8(%rbp)
	jne	.L19
	.file 2 "/usr/include/c++/10.2.0/iostream"
	.loc 2 74 25 is_stmt 1
	leaq	_ZStL8__ioinit(%rip), %rdi
	call	_ZNSt8ios_base4InitC1Ev@PLT
	leaq	__dso_handle(%rip), %rdx
	leaq	_ZStL8__ioinit(%rip), %rsi
	movq	_ZNSt8ios_base4InitD1Ev@GOTPCREL(%rip), %rax
	movq	%rax, %rdi
	call	__cxa_atexit@PLT
.L19:
	.loc 1 41 1
	nop
	leave
	.cfi_def_cfa 7, 8
	ret
	.cfi_endproc
.LFE2087:
	.size	_Z41__static_initialization_and_destruction_0ii, .-_Z41__static_initialization_and_destruction_0ii
	.type	_GLOBAL__sub_I__Z4echoR1A, @function
_GLOBAL__sub_I__Z4echoR1A:
.LFB2088:
	.loc 1 41 1
	.cfi_startproc
	pushq	%rbp
	.cfi_def_cfa_offset 16
	.cfi_offset 6, -16
	movq	%rsp, %rbp
	.cfi_def_cfa_register 6
	.loc 1 41 1
	movl	$65535, %esi
	movl	$1, %edi
	call	_Z41__static_initialization_and_destruction_0ii
	popq	%rbp
	.cfi_def_cfa 7, 8
	ret
	.cfi_endproc
.LFE2088:
	.size	_GLOBAL__sub_I__Z4echoR1A, .-_GLOBAL__sub_I__Z4echoR1A
	.section	.init_array,"aw"
	.align 8
	.quad	_GLOBAL__sub_I__Z4echoR1A
	.text
.Letext0:
	.file 3 "/usr/include/c++/10.2.0/cwchar"
	.file 4 "/usr/include/c++/10.2.0/bits/exception_ptr.h"
	.file 5 "/usr/include/c++/10.2.0/x86_64-pc-linux-gnu/bits/c++config.h"
	.file 6 "/usr/include/c++/10.2.0/type_traits"
	.file 7 "/usr/include/c++/10.2.0/bits/cpp_type_traits.h"
	.file 8 "/usr/include/c++/10.2.0/bits/stl_pair.h"
	.file 9 "/usr/include/c++/10.2.0/debug/debug.h"
	.file 10 "/usr/include/c++/10.2.0/bits/char_traits.h"
	.file 11 "/usr/include/c++/10.2.0/cstdint"
	.file 12 "/usr/include/c++/10.2.0/clocale"
	.file 13 "/usr/include/c++/10.2.0/cstdlib"
	.file 14 "/usr/include/c++/10.2.0/cstdio"
	.file 15 "/usr/include/c++/10.2.0/bits/basic_string.h"
	.file 16 "/usr/include/c++/10.2.0/system_error"
	.file 17 "/usr/include/c++/10.2.0/bits/ios_base.h"
	.file 18 "/usr/include/c++/10.2.0/cwctype"
	.file 19 "/usr/include/c++/10.2.0/iosfwd"
	.file 20 "/usr/include/c++/10.2.0/bits/predefined_ops.h"
	.file 21 "/usr/lib/gcc/x86_64-pc-linux-gnu/10.2.0/include/stddef.h"
	.file 22 "<built-in>"
	.file 23 "/usr/include/bits/types/wint_t.h"
	.file 24 "/usr/include/bits/types/__mbstate_t.h"
	.file 25 "/usr/include/bits/types/mbstate_t.h"
	.file 26 "/usr/include/bits/types/__FILE.h"
	.file 27 "/usr/include/bits/types/struct_FILE.h"
	.file 28 "/usr/include/bits/types/FILE.h"
	.file 29 "/usr/include/wchar.h"
	.file 30 "/usr/include/bits/types/struct_tm.h"
	.file 31 "/usr/include/bits/types.h"
	.file 32 "/usr/include/bits/stdint-intn.h"
	.file 33 "/usr/include/bits/stdint-uintn.h"
	.file 34 "/usr/include/stdint.h"
	.file 35 "/usr/include/locale.h"
	.file 36 "/usr/include/c++/10.2.0/x86_64-pc-linux-gnu/bits/atomic_word.h"
	.file 37 "/usr/include/stdlib.h"
	.file 38 "/usr/include/bits/types/__fpos_t.h"
	.file 39 "/usr/include/stdio.h"
	.file 40 "/usr/include/bits/wctype-wchar.h"
	.file 41 "/usr/include/wctype.h"
	.file 42 "/usr/include/c++/10.2.0/bits/stl_iterator_base_types.h"
	.section	.data.rel.local.DW.ref.__gxx_personality_v0,"awG",@progbits,DW.ref.__gxx_personality_v0,comdat
	.align 8
	.type	DW.ref.__gxx_personality_v0, @object
	.size	DW.ref.__gxx_personality_v0, 8
DW.ref.__gxx_personality_v0:
	.quad	__gxx_personality_v0
	.hidden	__dso_handle
	.ident	"GCC: (GNU) 10.2.0"
	.section	.note.GNU-stack,"",@progbits
